target datalayout = "e-m:e-p270:32:32-p271:32:32-p272:64:64-i64:64-i128:128-f80:128-n8:16:32:64-S128"
target triple = "x86_64-pc-linux-gnu"

@.str.20 = private unnamed_addr constant [37 x i8] c"../openssl/test/pkcs12_format_test.c\00", align 1
@.str.63 = private unnamed_addr constant [78 x i8] c"pkey = d2i_PrivateKey_ex(EVP_PKEY_RSA, NULL, &p, sizeof(rsa_key), NULL, NULL)\00", align 1
@.str.64 = private unnamed_addr constant [17 x i8] c"ERR_peek_error()\00", align 1
@.str.65 = private unnamed_addr constant [2 x i8] c"0\00", align 1
@.str.66 = private unnamed_addr constant [4 x i8] c"p12\00", align 1

; Function Attrs: nounwind uwtable
define internal i32 @pkcs12_create_test() #0 {
  %1 = alloca i32, align 4
  %2 = alloca ptr, align 8
  %3 = alloca ptr, align 8
  %4 = alloca ptr, align 8
  call void @llvm.lifetime.start.p0(i64 4, ptr %1) #4
  store i32 0, ptr %1, align 4, !tbaa !4
  call void @llvm.lifetime.start.p0(i64 8, ptr %2) #4
  store ptr null, ptr %2, align 8, !tbaa !22
  call void @llvm.lifetime.start.p0(i64 8, ptr %3) #4
  store ptr null, ptr %3, align 8, !tbaa !24
  call void @llvm.lifetime.start.p0(i64 8, ptr %4) #4
  store ptr @pkcs12_create_test.rsa_key, ptr %4, align 8, !tbaa !26
  %5 = call ptr @d2i_PrivateKey_ex(i32 noundef 6, ptr noundef null, ptr noundef %4, i64 noundef 609, ptr noundef null, ptr noundef null)
  store ptr %5, ptr %2, align 8, !tbaa !22
  %6 = call i32 @test_ptr(ptr noundef @.str.20, i32 noundef 864, ptr noundef @.str.63, ptr noundef %5)
  %7 = icmp ne i32 %6, 0
  br i1 %7, label %9, label %8

8:                                                ; preds = %0
  br label %29

9:                                                ; preds = %0
  %10 = call i64 @ERR_peek_error()
  %11 = trunc i64 %10 to i32
  %12 = call i32 @test_int_eq(ptr noundef @.str.20, i32 noundef 866, ptr noundef @.str.64, ptr noundef @.str.65, i32 noundef %11, i32 noundef 0)
  %13 = icmp ne i32 %12, 0
  br i1 %13, label %15, label %14

14:                                               ; preds = %9
  br label %29

15:                                               ; preds = %9
  %16 = load ptr, ptr %2, align 8, !tbaa !22
  %17 = call ptr @PKCS12_create(ptr noundef null, ptr noundef null, ptr noundef %16, ptr noundef null, ptr noundef null, i32 noundef 146, i32 noundef 146, i32 noundef 2, i32 noundef 1, i32 noundef 0)
  store ptr %17, ptr %3, align 8, !tbaa !24
  %18 = load ptr, ptr %3, align 8, !tbaa !24
  %19 = call i32 @test_ptr(ptr noundef @.str.20, i32 noundef 871, ptr noundef @.str.66, ptr noundef %18)
  %20 = icmp ne i32 %19, 0
  br i1 %20, label %22, label %21

21:                                               ; preds = %15
  br label %29

22:                                               ; preds = %15
  %23 = call i64 @ERR_peek_error()
  %24 = trunc i64 %23 to i32
  %25 = call i32 @test_int_eq(ptr noundef @.str.20, i32 noundef 874, ptr noundef @.str.64, ptr noundef @.str.65, i32 noundef %24, i32 noundef 0)
  %26 = icmp ne i32 %25, 0
  br i1 %26, label %28, label %27

27:                                               ; preds = %22
  br label %29

28:                                               ; preds = %22
  store i32 1, ptr %1, align 4, !tbaa !4
  br label %29

29:                                               ; preds = %28, %27, %21, %14, %8
  %30 = load ptr, ptr %3, align 8, !tbaa !24
  call void @PKCS12_free(ptr noundef %30)
  %31 = load ptr, ptr %2, align 8, !tbaa !22
  call void @EVP_PKEY_free(ptr noundef %31)
  %32 = load i32, ptr %1, align 4, !tbaa !4
  call void @llvm.lifetime.end.p0(i64 8, ptr %4) #4
  call void @llvm.lifetime.end.p0(i64 8, ptr %3) #4
  call void @llvm.lifetime.end.p0(i64 8, ptr %2) #4
  call void @llvm.lifetime.end.p0(i64 4, ptr %1) #4
  ret i32 %32
}