; Function Attrs: nounwind uwtable
define internal range(i32 0, 2) i32 @pkcs12_create_test() #1 {
  %1 = alloca ptr, align 8
  call void @llvm.lifetime.start.p0(i64 8, ptr nonnull %1) #4
  store ptr @pkcs12_create_test.rsa_key, ptr %1, align 8, !tbaa !20
  %2 = call ptr @d2i_PrivateKey_ex(i32 noundef 6, ptr noundef null, ptr noundef nonnull %1, i64 noundef 609, ptr noundef null, ptr noundef null) #4
  %3 = call i32 @test_ptr(ptr noundef nonnull @.str.20, i32 noundef 864, ptr noundef nonnull @.str.63, ptr noundef %2) #4
  %.not = icmp eq i32 %3, 0
  br i1 %.not, label %15, label %4

4:                                                ; preds = %0
  %5 = call i64 @ERR_peek_error() #4
  %6 = trunc i64 %5 to i32
  %7 = call i32 @test_int_eq(ptr noundef nonnull @.str.20, i32 noundef 866, ptr noundef nonnull @.str.64, ptr noundef nonnull @.str.65, i32 noundef %6, i32 noundef 0) #4
  %.not5 = icmp eq i32 %7, 0
  br i1 %.not5, label %15, label %8

8:                                                ; preds = %4
  %9 = call ptr @PKCS12_create(ptr noundef null, ptr noundef null, ptr noundef %2, ptr noundef null, ptr noundef null, i32 noundef 146, i32 noundef 146, i32 noundef 2, i32 noundef 1, i32 noundef 0) #4
  %10 = call i32 @test_ptr(ptr noundef nonnull @.str.20, i32 noundef 871, ptr noundef nonnull @.str.66, ptr noundef %9) #4
  %.not6 = icmp eq i32 %10, 0
  br i1 %.not6, label %15, label %11

11:                                               ; preds = %8
  %12 = call i64 @ERR_peek_error() #4
  %13 = trunc i64 %12 to i32
  %14 = call i32 @test_int_eq(ptr noundef nonnull @.str.20, i32 noundef 874, ptr noundef nonnull @.str.64, ptr noundef nonnull @.str.65, i32 noundef %13, i32 noundef 0) #4
  %.not7 = icmp ne i32 %14, 0
  %spec.select = zext i1 %.not7 to i32
  br label %15

15:                                               ; preds = %11, %8, %4, %0
  %.04 = phi i32 [ 0, %8 ], [ 0, %4 ], [ 0, %0 ], [ %spec.select, %11 ]
  %.0 = phi ptr [ %9, %8 ], [ null, %4 ], [ null, %0 ], [ %9, %11 ]
  call void @PKCS12_free(ptr noundef %.0) #4
  call void @EVP_PKEY_free(ptr noundef %2) #4
  call void @llvm.lifetime.end.p0(i64 8, ptr nonnull %1) #4
  ret i32 %.04
}